; Function Attrs: null_pointer_is_valid sspstrong uwtable
define internal void @nas_emm_sec_mode_rej(ptr noundef %0, ptr noundef %1, ptr noundef initializes((384, 388)) %2, i32 noundef %3, i32 noundef %4) #1 {
  %6 = getelementptr inbounds nuw i8, ptr %2, i64 384
  store i32 0, ptr %6, align 8
  %7 = icmp sgt i32 %4, 0
  br i1 %7, label %8, label %14

8:                                                ; preds = %5
  %9 = tail call zeroext i16 @elem_v(ptr noundef %0, ptr noundef %1, ptr noundef %2, i32 noundef 10, i32 noundef 11, i32 noundef %3, ptr noundef null)
  %.not = icmp eq i16 %9, 0
  br i1 %.not, label %14, label %10

10:                                               ; preds = %8
  %11 = zext i16 %9 to i32
  %12 = add i32 %3, %11
  %13 = sub nsw i32 %4, %11
  br label %17

14:                                               ; preds = %8, %5
  %15 = tail call ptr @get_gsm_a_msg_string(i32 noundef 10, i32 noundef 11)
  %16 = tail call ptr (ptr, ptr, ptr, ptr, i32, i32, ptr, ...) @proto_tree_add_expert_format(ptr noundef %1, ptr noundef %2, ptr noundef nonnull @ei_nas_eps_missing_mandatory_elemen, ptr noundef %0, i32 noundef %3, i32 noundef 0, ptr noundef nonnull @.str.959, ptr noundef %15, ptr noundef nonnull @.str.952)
  br label %17

17:                                               ; preds = %14, %10
  %.023 = phi i32 [ %12, %10 ], [ %3, %14 ]
  %.0 = phi i32 [ %13, %10 ], [ %4, %14 ]
  %.not26 = icmp eq i32 %.0, 0
  br i1 %.not26, label %20, label %18

18:                                               ; preds = %17
  %19 = tail call ptr @proto_tree_add_expert(ptr noundef %1, ptr noundef %2, ptr noundef nonnull @ei_nas_eps_extraneous_data, ptr noundef %0, i32 noundef %.023, i32 noundef %.0)
  br label %20

20:                                               ; preds = %18, %17
  ret void
}